; Function Attrs: null_pointer_is_valid sspstrong uwtable
define internal noundef i32 @dissect_drda_secmec(ptr noundef %0, ptr readnone captures(none) %1, ptr noundef %2, ptr readnone captures(none) %3) #0 {
  %5 = tail call i32 @tvb_reported_length_remaining(ptr noundef %0, i32 noundef 0)
  %6 = icmp sgt i32 %5, 1
  br i1 %6, label %.lr.ph, label %._crit_edge

.lr.ph:                                           ; preds = %4, %.lr.ph
  %.06 = phi i32 [ %9, %.lr.ph ], [ 0, %4 ]
  %7 = load i32, ptr @hf_drda_secmec, align 4
  %8 = tail call ptr @proto_tree_add_item(ptr noundef %2, i32 noundef %7, ptr noundef %0, i32 noundef %.06, i32 noundef 2, i32 noundef 0)
  %9 = add i32 %.06, 2
  %10 = tail call i32 @tvb_reported_length_remaining(ptr noundef %0, i32 noundef %9)
  %11 = icmp sgt i32 %10, 1
  br i1 %11, label %.lr.ph, label %._crit_edge, !llvm.loop !13

._crit_edge:                                      ; preds = %.lr.ph, %4
  %.0.lcssa = phi i32 [ 0, %4 ], [ %9, %.lr.ph ]
  ret i32 %.0.lcssa
}